target datalayout = "e-m:e-p270:32:32-p271:32:32-p272:64:64-i64:64-i128:128-f80:128-n8:16:32:64-S128"
target triple = "x86_64-pc-linux-gnu"

%struct.VLCInitState = type { ptr, i32 }

@aic_mode2_vlc = internal global [20 x ptr] zeroinitializer, align 16
@aic_mode1_vlc = internal global [90 x ptr] zeroinitializer, align 16
@ptype_vlc = internal global [7 x ptr] zeroinitializer, align 16
@btype_vlc = internal global [6 x ptr] zeroinitializer, align 16
@__const.rv40_init_tables.state = private unnamed_addr constant { ptr, i32, [4 x i8] } { ptr @aic_top_vlc, i32 23590, [4 x i8] zeroinitializer }, align 8

; Function Attrs: cold nounwind optsize uwtable
define internal ptr @rv40_init_table(ptr noundef %0, i32 noundef %1, i32 noundef %2, ptr noundef %3) #1 {
  %5 = alloca ptr, align 8
  %6 = alloca i32, align 4
  %7 = alloca i32, align 4
  %8 = alloca ptr, align 8
  store ptr %0, ptr %5, align 8, !tbaa !136
  store i32 %1, ptr %6, align 4, !tbaa !58
  store i32 %2, ptr %7, align 4, !tbaa !58
  store ptr %3, ptr %8, align 8, !tbaa !79
  %9 = load ptr, ptr %5, align 8, !tbaa !136
  %10 = load i32, ptr %6, align 4, !tbaa !58
  %11 = load i32, ptr %7, align 4, !tbaa !58
  %12 = load ptr, ptr %8, align 8, !tbaa !79
  %13 = getelementptr inbounds [2 x i8], ptr %12, i64 0
  %14 = getelementptr inbounds [2 x i8], ptr %13, i64 0, i64 1
  %15 = load ptr, ptr %8, align 8, !tbaa !79
  %16 = getelementptr inbounds [2 x i8], ptr %15, i64 0
  %17 = getelementptr inbounds [2 x i8], ptr %16, i64 0, i64 0
  %18 = call ptr @ff_vlc_init_tables_from_lengths(ptr noundef %9, i32 noundef %10, i32 noundef %11, ptr noundef %14, i32 noundef 2, ptr noundef %17, i32 noundef 2, i32 noundef 1, i32 noundef 0, i32 noundef 0)
  ret ptr %18
}

; Function Attrs: cold nounwind optsize uwtable
define internal void @rv40_init_tables() #1 {
  %1 = alloca %struct.VLCInitState, align 8
  %2 = alloca i32, align 4
  %3 = alloca i32, align 4
  %4 = alloca i32, align 4
  %5 = alloca [81 x i16], align 16
  %6 = alloca i32, align 4
  %7 = alloca i32, align 4
  %8 = alloca i32, align 4
  call void @llvm.lifetime.start.p0(i64 16, ptr %1) #9
  call void @llvm.memcpy.p0.p0.i64(ptr align 8 %1, ptr align 8 @__const.rv40_init_tables.state, i64 16, i1 false)
  call void @llvm.lifetime.start.p0(i64 4, ptr %2) #9
  %9 = call ptr @rv40_init_table(ptr noundef %1, i32 noundef 7, i32 noundef 16, ptr noundef @rv40_aic_top_vlc_tab) #10
  store i32 0, ptr %2, align 4, !tbaa !58
  br label %10

10:                                               ; preds = %27, %0
  %11 = load i32, ptr %2, align 4, !tbaa !58
  %12 = icmp slt i32 %11, 90
  br i1 %12, label %13, label %30

13:                                               ; preds = %10
  %14 = load i32, ptr %2, align 4, !tbaa !58
  %15 = srem i32 %14, 10
  %16 = icmp eq i32 %15, 9
  br i1 %16, label %17, label %18

17:                                               ; preds = %13
  br label %27

18:                                               ; preds = %13
  %19 = load i32, ptr %2, align 4, !tbaa !58
  %20 = sext i32 %19 to i64
  %21 = getelementptr inbounds [90 x [9 x [2 x i8]]], ptr @aic_mode1_vlc_tabs, i64 0, i64 %20
  %22 = getelementptr inbounds [9 x [2 x i8]], ptr %21, i64 0, i64 0
  %23 = call ptr @rv40_init_table(ptr noundef %1, i32 noundef 7, i32 noundef 9, ptr noundef %22) #10
  %24 = load i32, ptr %2, align 4, !tbaa !58
  %25 = sext i32 %24 to i64
  %26 = getelementptr inbounds [90 x ptr], ptr @aic_mode1_vlc, i64 0, i64 %25
  store ptr %23, ptr %26, align 8, !tbaa !88
  br label %27

27:                                               ; preds = %18, %17
  %28 = load i32, ptr %2, align 4, !tbaa !58
  %29 = add nsw i32 %28, 1
  store i32 %29, ptr %2, align 4, !tbaa !58
  br label %10, !llvm.loop !121

30:                                               ; preds = %10
  call void @llvm.lifetime.start.p0(i64 4, ptr %3) #9
  store i32 0, ptr %3, align 4, !tbaa !58
  br label %31

31:                                               ; preds = %80, %30
  %32 = load i32, ptr %3, align 4, !tbaa !58
  %33 = icmp ult i32 %32, 20
  br i1 %33, label %35, label %34

34:                                               ; preds = %31
  store i32 5, ptr %4, align 4
  call void @llvm.lifetime.end.p0(i64 4, ptr %3) #9
  br label %83

35:                                               ; preds = %31
  call void @llvm.lifetime.start.p0(i64 162, ptr %5) #9
  call void @llvm.lifetime.start.p0(i64 4, ptr %6) #9
  store i32 0, ptr %6, align 4, !tbaa !58
  br label %36

36:                                               ; preds = %67, %35
  %37 = load i32, ptr %6, align 4, !tbaa !58
  %38 = icmp slt i32 %37, 81
  br i1 %38, label %40, label %39

39:                                               ; preds = %36
  store i32 8, ptr %4, align 4
  call void @llvm.lifetime.end.p0(i64 4, ptr %6) #9
  br label %70

40:                                               ; preds = %36
  call void @llvm.lifetime.start.p0(i64 4, ptr %7) #9
  %41 = load i32, ptr %3, align 4, !tbaa !58
  %42 = zext i32 %41 to i64
  %43 = getelementptr inbounds nuw [20 x [81 x i8]], ptr @aic_mode2_vlc_syms, i64 0, i64 %42
  %44 = load i32, ptr %6, align 4, !tbaa !58
  %45 = sext i32 %44 to i64
  %46 = getelementptr inbounds [81 x i8], ptr %43, i64 0, i64 %45
  %47 = load i8, ptr %46, align 1, !tbaa !83
  %48 = zext i8 %47 to i32
  %49 = ashr i32 %48, 4
  store i32 %49, ptr %7, align 4, !tbaa !58
  call void @llvm.lifetime.start.p0(i64 4, ptr %8) #9
  %50 = load i32, ptr %3, align 4, !tbaa !58
  %51 = zext i32 %50 to i64
  %52 = getelementptr inbounds nuw [20 x [81 x i8]], ptr @aic_mode2_vlc_syms, i64 0, i64 %51
  %53 = load i32, ptr %6, align 4, !tbaa !58
  %54 = sext i32 %53 to i64
  %55 = getelementptr inbounds [81 x i8], ptr %52, i64 0, i64 %54
  %56 = load i8, ptr %55, align 1, !tbaa !83
  %57 = zext i8 %56 to i32
  %58 = and i32 %57, 15
  store i32 %58, ptr %8, align 4, !tbaa !58
  %59 = load i32, ptr %7, align 4, !tbaa !58
  %60 = load i32, ptr %8, align 4, !tbaa !58
  %61 = shl i32 %60, 8
  %62 = or i32 %59, %61
  %63 = trunc i32 %62 to i16
  %64 = load i32, ptr %6, align 4, !tbaa !58
  %65 = sext i32 %64 to i64
  %66 = getelementptr inbounds [81 x i16], ptr %5, i64 0, i64 %65
  store i16 %63, ptr %66, align 2, !tbaa !85
  call void @llvm.lifetime.end.p0(i64 4, ptr %8) #9
  call void @llvm.lifetime.end.p0(i64 4, ptr %7) #9
  br label %67

67:                                               ; preds = %40
  %68 = load i32, ptr %6, align 4, !tbaa !58
  %69 = add nsw i32 %68, 1
  store i32 %69, ptr %6, align 4, !tbaa !58
  br label %36, !llvm.loop !122

70:                                               ; preds = %39
  %71 = load i32, ptr %3, align 4, !tbaa !58
  %72 = zext i32 %71 to i64
  %73 = getelementptr inbounds nuw [20 x [81 x i8]], ptr @aic_mode2_vlc_bits, i64 0, i64 %72
  %74 = getelementptr inbounds [81 x i8], ptr %73, i64 0, i64 0
  %75 = getelementptr inbounds [81 x i16], ptr %5, i64 0, i64 0
  %76 = call ptr @ff_vlc_init_tables_from_lengths(ptr noundef %1, i32 noundef 9, i32 noundef 81, ptr noundef %74, i32 noundef 1, ptr noundef %75, i32 noundef 2, i32 noundef 2, i32 noundef 0, i32 noundef 0)
  %77 = load i32, ptr %3, align 4, !tbaa !58
  %78 = zext i32 %77 to i64
  %79 = getelementptr inbounds nuw [20 x ptr], ptr @aic_mode2_vlc, i64 0, i64 %78
  store ptr %76, ptr %79, align 8, !tbaa !88
  call void @llvm.lifetime.end.p0(i64 162, ptr %5) #9
  br label %80

80:                                               ; preds = %70
  %81 = load i32, ptr %3, align 4, !tbaa !58
  %82 = add i32 %81, 1
  store i32 %82, ptr %3, align 4, !tbaa !58
  br label %31, !llvm.loop !123

83:                                               ; preds = %34
  store i32 0, ptr %2, align 4, !tbaa !58
  br label %84

84:                                               ; preds = %96, %83
  %85 = load i32, ptr %2, align 4, !tbaa !58
  %86 = icmp slt i32 %85, 7
  br i1 %86, label %87, label %99

87:                                               ; preds = %84
  %88 = load i32, ptr %2, align 4, !tbaa !58
  %89 = sext i32 %88 to i64
  %90 = getelementptr inbounds [7 x [8 x [2 x i8]]], ptr @ptype_vlc_tabs, i64 0, i64 %89
  %91 = getelementptr inbounds [8 x [2 x i8]], ptr %90, i64 0, i64 0
  %92 = call ptr @rv40_init_table(ptr noundef %1, i32 noundef 7, i32 noundef 8, ptr noundef %91) #10
  %93 = load i32, ptr %2, align 4, !tbaa !58
  %94 = sext i32 %93 to i64
  %95 = getelementptr inbounds [7 x ptr], ptr @ptype_vlc, i64 0, i64 %94
  store ptr %92, ptr %95, align 8, !tbaa !88
  br label %96

96:                                               ; preds = %87
  %97 = load i32, ptr %2, align 4, !tbaa !58
  %98 = add nsw i32 %97, 1
  store i32 %98, ptr %2, align 4, !tbaa !58
  br label %84, !llvm.loop !124

99:                                               ; preds = %84
  store i32 0, ptr %2, align 4, !tbaa !58
  br label %100

100:                                              ; preds = %112, %99
  %101 = load i32, ptr %2, align 4, !tbaa !58
  %102 = icmp slt i32 %101, 6
  br i1 %102, label %103, label %115

103:                                              ; preds = %100
  %104 = load i32, ptr %2, align 4, !tbaa !58
  %105 = sext i32 %104 to i64
  %106 = getelementptr inbounds [6 x [7 x [2 x i8]]], ptr @btype_vlc_tabs, i64 0, i64 %105
  %107 = getelementptr inbounds [7 x [2 x i8]], ptr %106, i64 0, i64 0
  %108 = call ptr @rv40_init_table(ptr noundef %1, i32 noundef 6, i32 noundef 7, ptr noundef %107) #10
  %109 = load i32, ptr %2, align 4, !tbaa !58
  %110 = sext i32 %109 to i64
  %111 = getelementptr inbounds [6 x ptr], ptr @btype_vlc, i64 0, i64 %110
  store ptr %108, ptr %111, align 8, !tbaa !88
  br label %112

112:                                              ; preds = %103
  %113 = load i32, ptr %2, align 4, !tbaa !58
  %114 = add nsw i32 %113, 1
  store i32 %114, ptr %2, align 4, !tbaa !58
  br label %100, !llvm.loop !125

115:                                              ; preds = %100
  call void @llvm.lifetime.end.p0(i64 4, ptr %2) #9
  call void @llvm.lifetime.end.p0(i64 16, ptr %1) #9
  ret void
}