; Function Attrs: cold nounwind optsize uwtable
define internal void @rv40_init_tables() #1 {
  %1 = alloca %struct.VLCInitState, align 8
  %2 = alloca [81 x i16], align 16
  call void @llvm.lifetime.start.p0(i64 16, ptr nonnull %1) #8
  call void @llvm.memcpy.p0.p0.i64(ptr noundef nonnull align 8 dereferenceable(16) %1, ptr noundef nonnull align 8 dereferenceable(16) @__const.rv40_init_tables.state, i64 16, i1 false)
  %3 = call ptr @ff_vlc_init_tables_from_lengths(ptr noundef nonnull %1, i32 noundef 7, i32 noundef 16, ptr noundef nonnull getelementptr inbounds nuw (i8, ptr @rv40_aic_top_vlc_tab, i64 1), i32 noundef 2, ptr noundef nonnull @rv40_aic_top_vlc_tab, i32 noundef 2, i32 noundef 1, i32 noundef 0, i32 noundef 0) #8
  br label %4

4:                                                ; preds = %0, %12
  %indvars.iv = phi i64 [ 0, %0 ], [ %indvars.iv.next, %12 ]
  %.lhs.trunc = trunc i64 %indvars.iv to i8
  %5 = urem i8 %.lhs.trunc, 10
  %6 = icmp eq i8 %5, 9
  br i1 %6, label %12, label %7

7:                                                ; preds = %4
  %8 = getelementptr inbounds nuw [90 x [9 x [2 x i8]]], ptr @aic_mode1_vlc_tabs, i64 0, i64 %indvars.iv
  %9 = getelementptr inbounds nuw i8, ptr %8, i64 1
  %10 = call ptr @ff_vlc_init_tables_from_lengths(ptr noundef nonnull %1, i32 noundef 7, i32 noundef 9, ptr noundef nonnull %9, i32 noundef 2, ptr noundef nonnull %8, i32 noundef 2, i32 noundef 1, i32 noundef 0, i32 noundef 0) #8
  %11 = getelementptr inbounds nuw [90 x ptr], ptr @aic_mode1_vlc, i64 0, i64 %indvars.iv
  store ptr %10, ptr %11, align 8, !tbaa !83
  br label %12

12:                                               ; preds = %4, %7
  %indvars.iv.next = add nuw nsw i64 %indvars.iv, 1
  %exitcond.not = icmp eq i64 %indvars.iv.next, 90
  br i1 %exitcond.not, label %.preheader29, label %4, !llvm.loop !119

.preheader29:                                     ; preds = %12, %13
  %indvars.iv40 = phi i64 [ %indvars.iv.next41, %13 ], [ 0, %12 ]
  call void @llvm.lifetime.start.p0(i64 162, ptr nonnull %2) #8
  br label %17

13:                                               ; preds = %17
  %14 = getelementptr inbounds nuw [20 x [81 x i8]], ptr @aic_mode2_vlc_bits, i64 0, i64 %indvars.iv40
  %15 = call ptr @ff_vlc_init_tables_from_lengths(ptr noundef nonnull %1, i32 noundef 9, i32 noundef 81, ptr noundef nonnull %14, i32 noundef 1, ptr noundef nonnull %2, i32 noundef 2, i32 noundef 2, i32 noundef 0, i32 noundef 0) #8
  %16 = getelementptr inbounds nuw [20 x ptr], ptr @aic_mode2_vlc, i64 0, i64 %indvars.iv40
  store ptr %15, ptr %16, align 8, !tbaa !83
  call void @llvm.lifetime.end.p0(i64 162, ptr nonnull %2) #8
  %indvars.iv.next41 = add nuw nsw i64 %indvars.iv40, 1
  %exitcond43.not = icmp eq i64 %indvars.iv.next41, 20
  br i1 %exitcond43.not, label %.preheader28, label %.preheader29, !llvm.loop !120

17:                                               ; preds = %.preheader29, %17
  %indvars.iv36 = phi i64 [ 0, %.preheader29 ], [ %indvars.iv.next37, %17 ]
  %18 = getelementptr inbounds nuw [20 x [81 x i8]], ptr @aic_mode2_vlc_syms, i64 0, i64 %indvars.iv40, i64 %indvars.iv36
  %19 = load i8, ptr %18, align 1, !tbaa !65
  %20 = zext i8 %19 to i16
  %21 = lshr i16 %20, 4
  %22 = shl nuw i16 %20, 8
  %23 = and i16 %22, 3840
  %24 = or disjoint i16 %23, %21
  %25 = getelementptr inbounds nuw [81 x i16], ptr %2, i64 0, i64 %indvars.iv36
  store i16 %24, ptr %25, align 2, !tbaa !81
  %indvars.iv.next37 = add nuw nsw i64 %indvars.iv36, 1
  %exitcond39.not = icmp eq i64 %indvars.iv.next37, 81
  br i1 %exitcond39.not, label %13, label %17, !llvm.loop !121

.preheader28:                                     ; preds = %13, %.preheader28
  %indvars.iv44 = phi i64 [ %indvars.iv.next45, %.preheader28 ], [ 0, %13 ]
  %26 = getelementptr inbounds nuw [7 x [8 x [2 x i8]]], ptr @ptype_vlc_tabs, i64 0, i64 %indvars.iv44
  %27 = getelementptr inbounds nuw i8, ptr %26, i64 1
  %28 = call ptr @ff_vlc_init_tables_from_lengths(ptr noundef nonnull %1, i32 noundef 7, i32 noundef 8, ptr noundef nonnull %27, i32 noundef 2, ptr noundef nonnull %26, i32 noundef 2, i32 noundef 1, i32 noundef 0, i32 noundef 0) #8
  %29 = getelementptr inbounds nuw [7 x ptr], ptr @ptype_vlc, i64 0, i64 %indvars.iv44
  store ptr %28, ptr %29, align 8, !tbaa !83
  %indvars.iv.next45 = add nuw nsw i64 %indvars.iv44, 1
  %exitcond47.not = icmp eq i64 %indvars.iv.next45, 7
  br i1 %exitcond47.not, label %.preheader, label %.preheader28, !llvm.loop !122

.preheader:                                       ; preds = %.preheader28, %.preheader
  %indvars.iv48 = phi i64 [ %indvars.iv.next49, %.preheader ], [ 0, %.preheader28 ]
  %30 = getelementptr inbounds nuw [6 x [7 x [2 x i8]]], ptr @btype_vlc_tabs, i64 0, i64 %indvars.iv48
  %31 = getelementptr inbounds nuw i8, ptr %30, i64 1
  %32 = call ptr @ff_vlc_init_tables_from_lengths(ptr noundef nonnull %1, i32 noundef 6, i32 noundef 7, ptr noundef nonnull %31, i32 noundef 2, ptr noundef nonnull %30, i32 noundef 2, i32 noundef 1, i32 noundef 0, i32 noundef 0) #8
  %33 = getelementptr inbounds nuw [6 x ptr], ptr @btype_vlc, i64 0, i64 %indvars.iv48
  store ptr %32, ptr %33, align 8, !tbaa !83
  %indvars.iv.next49 = add nuw nsw i64 %indvars.iv48, 1
  %exitcond51.not = icmp eq i64 %indvars.iv.next49, 6
  br i1 %exitcond51.not, label %34, label %.preheader, !llvm.loop !123

34:                                               ; preds = %.preheader
  call void @llvm.lifetime.end.p0(i64 16, ptr nonnull %1) #8
  ret void
}